target datalayout = "e-m:e-p270:32:32-p271:32:32-p272:64:64-i64:64-i128:128-f80:128-n8:16:32:64-S128"
target triple = "x86_64-pc-linux-gnu"

; Function Attrs: mustprogress nounwind uwtable
define linkonce_odr hidden noundef i64 @_Z18min_signed_integer9BasicType(i8 noundef zeroext %0) #1 comdat {
  %2 = alloca i64, align 8
  %3 = alloca i8, align 1
  store i8 %0, ptr %3, align 1
  %4 = load i8, ptr %3, align 1
  %5 = zext i8 %4 to i32
  %6 = icmp eq i32 %5, 10
  br i1 %6, label %7, label %8

7:                                                ; preds = %1
  store i64 -2147483648, ptr %2, align 8
  br label %9

8:                                                ; preds = %1
  store i64 -9223372036854775808, ptr %2, align 8
  br label %9

9:                                                ; preds = %8, %7
  %10 = load i64, ptr %2, align 8
  ret i64 %10
}

; Function Attrs: mustprogress nounwind uwtable
define linkonce_odr hidden noundef i64 @_Z18max_signed_integer9BasicType(i8 noundef zeroext %0) #1 comdat {
  %2 = alloca i64, align 8
  %3 = alloca i8, align 1
  store i8 %0, ptr %3, align 1
  %4 = load i8, ptr %3, align 1
  %5 = zext i8 %4 to i32
  %6 = icmp eq i32 %5, 10
  br i1 %6, label %7, label %8

7:                                                ; preds = %1
  store i64 2147483647, ptr %2, align 8
  br label %9

8:                                                ; preds = %1
  store i64 9223372036854775807, ptr %2, align 8
  br label %9

9:                                                ; preds = %8, %7
  %10 = load i64, ptr %2, align 8
  ret i64 %10
}

; Function Attrs: mustprogress nounwind uwtable
define internal noundef i32 @_ZL21check_stride_overflowlPK11TypeInteger9BasicType(i64 noundef %0, ptr noundef %1, i8 noundef zeroext %2) #1 {
  %4 = alloca i32, align 4
  %5 = alloca i64, align 8
  %6 = alloca ptr, align 8
  %7 = alloca i8, align 1
  store i64 %0, ptr %5, align 8
  store ptr %1, ptr %6, align 8
  store i8 %2, ptr %7, align 1
  %8 = load i64, ptr %5, align 8
  %9 = icmp sgt i64 %8, 0
  br i1 %9, label %10, label %35

10:                                               ; preds = %3
  %11 = load ptr, ptr %6, align 8
  %12 = load ptr, ptr %11, align 8
  %13 = getelementptr inbounds ptr, ptr %12, i64 23
  %14 = load ptr, ptr %13, align 8
  %15 = call noundef i64 %14(ptr noundef nonnull align 8 dereferenceable(22) %11)
  %16 = load i8, ptr %7, align 1
  %17 = call noundef i64 @_Z18max_signed_integer9BasicType(i8 noundef zeroext %16)
  %18 = load i64, ptr %5, align 8
  %19 = sub nsw i64 %17, %18
  %20 = icmp sgt i64 %15, %19
  br i1 %20, label %21, label %22

21:                                               ; preds = %10
  store i32 -1, ptr %4, align 4
  br label %61

22:                                               ; preds = %10
  %23 = load ptr, ptr %6, align 8
  %24 = load ptr, ptr %23, align 8
  %25 = getelementptr inbounds ptr, ptr %24, i64 22
  %26 = load ptr, ptr %25, align 8
  %27 = call noundef i64 %26(ptr noundef nonnull align 8 dereferenceable(22) %23)
  %28 = load i8, ptr %7, align 1
  %29 = call noundef i64 @_Z18max_signed_integer9BasicType(i8 noundef zeroext %28)
  %30 = load i64, ptr %5, align 8
  %31 = sub nsw i64 %29, %30
  %32 = icmp sgt i64 %27, %31
  br i1 %32, label %33, label %34

33:                                               ; preds = %22
  store i32 1, ptr %4, align 4
  br label %61

34:                                               ; preds = %22
  br label %60

35:                                               ; preds = %3
  %36 = load ptr, ptr %6, align 8
  %37 = load ptr, ptr %36, align 8
  %38 = getelementptr inbounds ptr, ptr %37, i64 22
  %39 = load ptr, ptr %38, align 8
  %40 = call noundef i64 %39(ptr noundef nonnull align 8 dereferenceable(22) %36)
  %41 = load i8, ptr %7, align 1
  %42 = call noundef i64 @_Z18min_signed_integer9BasicType(i8 noundef zeroext %41)
  %43 = load i64, ptr %5, align 8
  %44 = sub nsw i64 %42, %43
  %45 = icmp slt i64 %40, %44
  br i1 %45, label %46, label %47

46:                                               ; preds = %35
  store i32 -1, ptr %4, align 4
  br label %61

47:                                               ; preds = %35
  %48 = load ptr, ptr %6, align 8
  %49 = load ptr, ptr %48, align 8
  %50 = getelementptr inbounds ptr, ptr %49, i64 23
  %51 = load ptr, ptr %50, align 8
  %52 = call noundef i64 %51(ptr noundef nonnull align 8 dereferenceable(22) %48)
  %53 = load i8, ptr %7, align 1
  %54 = call noundef i64 @_Z18min_signed_integer9BasicType(i8 noundef zeroext %53)
  %55 = load i64, ptr %5, align 8
  %56 = sub nsw i64 %54, %55
  %57 = icmp slt i64 %52, %56
  br i1 %57, label %58, label %59

58:                                               ; preds = %47
  store i32 1, ptr %4, align 4
  br label %61

59:                                               ; preds = %47
  br label %60

60:                                               ; preds = %59, %34
  store i32 0, ptr %4, align 4
  br label %61

61:                                               ; preds = %60, %58, %46, %33, %21
  %62 = load i32, ptr %4, align 4
  ret i32 %62
}