; Function Attrs: mustprogress nounwind uwtable
define internal fastcc noundef range(i32 -1, 2) i32 @_ZL21check_stride_overflowlPK11TypeInteger9BasicType(i64 noundef %0, ptr noundef %1, i8 noundef zeroext %2) unnamed_addr #0 {
  %4 = icmp sgt i64 %0, 0
  %5 = load ptr, ptr %1, align 8
  %6 = icmp eq i8 %2, 10
  br i1 %4, label %7, label %19

7:                                                ; preds = %3
  %8 = getelementptr inbounds i8, ptr %5, i64 184
  %9 = load ptr, ptr %8, align 8
  %10 = tail call noundef i64 %9(ptr noundef nonnull align 8 dereferenceable(22) %1) #15
  %..i = select i1 %6, i64 2147483647, i64 9223372036854775807
  %11 = sub nsw i64 %..i, %0
  %12 = icmp sgt i64 %10, %11
  br i1 %12, label %32, label %13

13:                                               ; preds = %7
  %14 = load ptr, ptr %1, align 8
  %15 = getelementptr inbounds i8, ptr %14, i64 176
  %16 = load ptr, ptr %15, align 8
  %17 = tail call noundef i64 %16(ptr noundef nonnull align 8 dereferenceable(22) %1) #15
  %18 = icmp sgt i64 %17, %11
  br i1 %18, label %32, label %31

19:                                               ; preds = %3
  %20 = getelementptr inbounds i8, ptr %5, i64 176
  %21 = load ptr, ptr %20, align 8
  %22 = tail call noundef i64 %21(ptr noundef nonnull align 8 dereferenceable(22) %1) #15
  %..i15 = select i1 %6, i64 -2147483648, i64 -9223372036854775808
  %23 = sub nsw i64 %..i15, %0
  %24 = icmp slt i64 %22, %23
  br i1 %24, label %32, label %25

25:                                               ; preds = %19
  %26 = load ptr, ptr %1, align 8
  %27 = getelementptr inbounds i8, ptr %26, i64 184
  %28 = load ptr, ptr %27, align 8
  %29 = tail call noundef i64 %28(ptr noundef nonnull align 8 dereferenceable(22) %1) #15
  %30 = icmp slt i64 %29, %23
  br i1 %30, label %32, label %31

31:                                               ; preds = %25, %13
  br label %32

32:                                               ; preds = %25, %19, %13, %7, %31
  %.0 = phi i32 [ 0, %31 ], [ -1, %7 ], [ 1, %13 ], [ -1, %19 ], [ 1, %25 ]
  ret i32 %.0
}